(dp0
S'keywords'
p1
(dp2
Vron
p3
(lp4
S'/Users/dkhroad/Notes/vi color_schemes.txt'
p5
ag5
aS'/Users/dkhroad/Notes/vi_color_schemes.txt'
p6
asVhighlighted
p7
(lp8
S'/Users/dkhroad/dotfiles/dotvim/bundle/notes/misc/notes/user/First Note'
p9
asVtext
p10
(lp11
S'/Users/dkhroad/Notes/bash_command_line_editing.txt'
p12
asVmove
p13
(lp14
g12
asVsyntax
p15
(lp16
g9
aS'/Users/dkhroad/Notes/vim_buffer_redirect'
p17
asVgf
p18
(lp19
g9
asVcolors
p20
(lp21
g5
ag5
ag6
asVstored
p22
(lp23
S'/Users/dkhroad/dotfiles/dotvim/bundle/notes/misc/notes/user/README'
p24
asVthrough
p25
(lp26
g12
asVgo
p27
(lp28
g9
asVsaved
p29
(lp30
g12
asVbefore
p31
(lp32
g12
asVcolor_schemes
p33
(lp34
g5
ag5
asVcut
p35
(lp36
g12
asVbased
p37
(lp38
g9
asVjust
p39
(lp40
g9
asVtitle
p41
(lp42
g9
asVfolded
p43
(lp44
g9
asVto
p45
(lp46
g24
ag9
ag12
aS'/Users/dkhroad/Notes/wiki'
p47
aS'/Users/dkhroad/Notes/wiki.txt'
p48
asVls
p49
(lp50
g5
ag5
ag6
asVunder
p51
(lp52
g9
asVsave
p53
(lp54
g9
asVget
p55
(lp56
g9
asVslate
p57
(lp58
g5
ag5
ag6
asVstop
p59
(lp60
g47
ag48
asVpress
p61
(lp62
g9
asVvim
p63
(lp64
g9
ag5
ag5
ag17
ag6
asVinsert
p65
(lp66
g12
asVname
p67
(lp68
g9
asVnotes
p69
(lp70
g24
ag9
asVzellner
p71
(lp72
g5
ag5
ag6
asVmorning
p73
(lp74
g5
ag5
ag6
asVitem
p75
(lp76
g9
asVbash_command_line_editing
p77
(lp78
g12
asVheading
p79
(lp80
g9
asVwiki
p81
(lp82
g48
asVwww
p83
(lp84
g9
asVgoogle
p85
(lp86
g9
asVback
p87
(lp88
g12
asVlibrary
p89
(lp90
g47
ag48
asVhosting
p91
(lp92
g9
asVjump
p93
(lp94
g9
asVsee
p95
(lp96
g24
ag9
asVmeta
p97
(lp98
g12
asVpicked
p99
(lp100
g9
asVblue
p101
(lp102
g5
ag5
ag6
asVcursor
p103
(lp104
g9
ag12
asVfor
p105
(lp106
g9
ag12
asVdarkblue
p107
(lp108
g5
ag5
ag6
asVredir
p109
(lp110
g17
asVdelek
p111
(lp112
g5
ag5
ag6
asVfilename
p113
(lp114
g9
asVcurrent
p115
(lp116
g12
asVre
p117
(lp118
g9
asVdoes
p119
(lp120
g9
asVabove
p121
(lp122
g9
asVreadme
p123
(lp124
g24
asVlaunchctl
p125
(lp126
g47
ag48
asVmode
p127
(lp128
g9
ag12
asVbe
p129
(lp130
g24
ag9
ag12
asVwe
p131
(lp132
g9
asVdeleted
p133
(lp134
g12
asVuse
p135
(lp136
g9
asVundo
p137
(lp138
g12
asVvim72
p139
(lp140
g5
ag5
ag6
asVput
p141
(lp142
g12
asVorg
p143
(lp144
g47
ag48
asVpaste
p145
(lp146
g12
asVby
p147
(lp148
g24
asVbash
p149
(lp150
g5
ag5
ag6
ag47
ag48
asVplug
p151
(lp152
g9
asVmymaps
p153
(lp154
g17
asVabout
p155
(lp156
g9
asVlast
p157
(lp158
g12
asVof
p159
(lp160
g12
asVtaking
p161
(lp162
g9
ag17
asVthing
p163
(lp164
g12
asVdelete
p165
(lp166
g24
ag12
asVcom
p167
(lp168
g9
asVor
p169
(lp170
g9
asVautomatically
p171
(lp172
g9
asVfirst
p173
(lp174
g9
asVload
p175
(lp176
g47
ag48
asVthis
p177
(lp178
g24
ag9
asVci
p179
(lp180
g47
ag48
asVfeel
p181
(lp182
g24
asVinto
p183
(lp184
g12
asVone
p185
(lp186
g12
asVdown
p187
(lp188
g12
asVright
p189
(lp190
g12
asVpablo
p191
(lp192
g5
ag5
ag6
asVtxt
p193
(lp194
g17
asVyour
p195
(lp196
g24
ag9
asVvi_color_schemes
p197
(lp198
g6
asVguess
p199
(lp200
g9
asVbeginning
p201
(lp202
g12
asVthree
p203
(lp204
g9
asVlaunchdaemons
p205
(lp206
g47
ag48
asVstart
p207
(lp208
g47
ag48
asVemacs
p209
(lp210
g12
asVusr
p211
(lp212
g5
ag5
ag6
asVforward
p213
(lp214
g12
asVwas
p215
(lp216
g12
asVfree
p217
(lp218
g24
asVshine
p219
(lp220
g5
ag5
ag6
asVthat
p221
(lp222
g9
ag12
asVstarted
p223
(lp224
g9
asVmurphy
p225
(lp226
g5
ag5
ag6
asVcommands
p227
(lp228
g9
ag17
ag12
asVline
p229
(lp230
g12
asVwith
p231
(lp232
g9
asVword
p233
(lp234
g12
asVdefault
p235
(lp236
g24
ag5
ag5
ag6
asVwork
p237
(lp238
g9
asVup
p239
(lp240
g12
asVwill
p241
(lp242
g24
ag9
asVcan
p243
(lp244
g9
asVhistory
p245
(lp246
g12
asVand
p247
(lp248
g9
ag12
ag47
ag48
asVwant
p249
(lp250
g24
asVctrl
p251
(lp252
g12
asVvi
p253
(lp254
g5
ag5
ag12
asVis
p255
(lp256
g9
asVsudo
p257
(lp258
g47
ag48
asVshare
p259
(lp260
g5
ag5
ag6
asVit
p261
(lp262
g24
ag9
asVdoesn
p263
(lp264
g12
asVvim_buffer_redirect
p265
(lp266
g17
asVat
p267
(lp268
g12
asVfile
p269
(lp270
g24
asVin
p271
(lp272
g24
ag9
ag12
asVready
p273
(lp274
g9
asVapparently
p275
(lp276
g9
asVplist
p277
(lp278
g47
ag48
asVif
p279
(lp280
g24
asVagain
p281
(lp282
g24
asVend
p283
(lp284
g17
ag12
asVzero
p285
(lp286
g12
asVthings
p287
(lp288
g9
asVself
p289
(lp290
g9
asVwhen
p291
(lp292
g9
asVnote
p293
(lp294
g9
ag17
asVjenkins
p295
(lp296
g47
ag48
asVyou
p297
(lp298
g24
ag9
asVdd
p299
(lp300
g12
asVtorte
p301
(lp302
g5
ag5
ag6
asVmap
p303
(lp304
g17
asVnormal
p305
(lp306
g9
asVafter
p307
(lp308
g12
asVupdate
p309
(lp310
g9
asVpasting
p311
(lp312
g12
asVbullets
p313
(lp314
g9
asVposition
p315
(lp316
g9
ag12
asVon
p317
(lp318
g9
asVdesert
p319
(lp320
g5
ag5
ag6
asVnumbered
p321
(lp322
g9
asVdon
p323
(lp324
g24
asVbullet
p325
(lp326
g9
asVunload
p327
(lp328
g47
ag48
asVdocumentation
p329
(lp330
g9
asVthese
p331
(lp332
g9
asVwrite
p333
(lp334
g9
asVcomes
p335
(lp336
g9
asVenter
p337
(lp338
g9
asVdirectory
p339
(lp340
g24
asVeverything
p341
(lp342
g12
asVthe
p343
(lp344
g9
ag12
asVpeachpuff
p345
(lp346
g5
ag5
ag6
asVleft
p347
(lp348
g12
assS'files'
p349
(dp350
g17
F1345354582.0
sg48
F1346042338.0
sg12
F1346016830.0
sg6
F1345356989.0
ssS'version'
p351
I1
s.