(dp0
S'keywords'
p1
(dp2
Vron
p3
(lp4
S'/Users/dkhroad/Notes/vi color_schemes.txt'
p5
ag5
aS'/Users/dkhroad/Notes/vi_color_schemes.txt'
p6
asVhighlighted
p7
(lp8
S'/Users/dkhroad/dotfiles/dotvim/bundle/notes/misc/notes/user/First Note'
p9
asVsyntax
p10
(lp11
g9
aS'/Users/dkhroad/Notes/vim_buffer_redirect'
p12
asVgf
p13
(lp14
g9
asVcolors
p15
(lp16
g5
ag5
ag6
asVstored
p17
(lp18
S'/Users/dkhroad/dotfiles/dotvim/bundle/notes/misc/notes/user/README'
p19
asVgo
p20
(lp21
g9
asVcolor_schemes
p22
(lp23
g5
ag5
asVbased
p24
(lp25
g9
asVjust
p26
(lp27
g9
asVtitle
p28
(lp29
g9
asVfolded
p30
(lp31
g9
asVto
p32
(lp33
g19
ag9
asVls
p34
(lp35
g5
ag5
ag6
asVunder
p36
(lp37
g9
asVsave
p38
(lp39
g9
asVget
p40
(lp41
g9
asVslate
p42
(lp43
g5
ag5
ag6
asVpress
p44
(lp45
g9
asVname
p46
(lp47
g9
asVnotes
p48
(lp49
g19
ag9
asVzellner
p50
(lp51
g5
ag5
ag6
asVmorning
p52
(lp53
g5
ag5
ag6
asVdefault
p54
(lp55
g19
ag5
ag5
ag6
asVmode
p56
(lp57
g9
asVheading
p58
(lp59
g9
asVwww
p60
(lp61
g9
asVgoogle
p62
(lp63
g9
asVjump
p64
(lp65
g9
asVsee
p66
(lp67
g19
ag9
asVpicked
p68
(lp69
g9
asVblue
p70
(lp71
g5
ag5
ag6
asVwill
p72
(lp73
g19
ag9
asVfor
p74
(lp75
g9
asVitem
p76
(lp77
g9
asVdarkblue
p78
(lp79
g5
ag5
ag6
asVredir
p80
(lp81
g12
asVdelek
p82
(lp83
g5
ag5
ag6
asVfilename
p84
(lp85
g9
asVre
p86
(lp87
g9
asVdoes
p88
(lp89
g9
asVabove
p90
(lp91
g9
asVreadme
p92
(lp93
g19
asVbe
p94
(lp95
g19
ag9
asVwe
p96
(lp97
g9
asVuse
p98
(lp99
g9
asVfree
p100
(lp101
g19
asVvim72
p102
(lp103
g5
ag5
ag6
asVby
p104
(lp105
g19
asVbash
p106
(lp107
g5
ag5
ag6
asVplug
p108
(lp109
g9
asVmymaps
p110
(lp111
g12
asVabout
p112
(lp113
g9
asVtaking
p114
(lp115
g9
ag12
asVcom
p116
(lp117
g9
asVor
p118
(lp119
g9
asVautomatically
p120
(lp121
g9
asVfirst
p122
(lp123
g9
asVfeel
p124
(lp125
g19
asVvim
p126
(lp127
g9
ag5
ag5
ag12
ag6
asVpablo
p128
(lp129
g5
ag5
ag6
asVtxt
p130
(lp131
g12
asVyour
p132
(lp133
g19
ag9
asVvi_color_schemes
p134
(lp135
g6
asVguess
p136
(lp137
g9
asVthree
p138
(lp139
g9
asVusr
p140
(lp141
g5
ag5
ag6
asVshine
p142
(lp143
g5
ag5
ag6
asVthat
p144
(lp145
g9
asVstarted
p146
(lp147
g9
asVmurphy
p148
(lp149
g5
ag5
ag6
asVcommands
p150
(lp151
g9
ag12
asVwith
p152
(lp153
g9
asVthis
p154
(lp155
g19
ag9
asVwork
p156
(lp157
g9
asVhosting
p158
(lp159
g9
asVcursor
p160
(lp161
g9
asVcan
p162
(lp163
g9
asVdelete
p164
(lp165
g19
asVand
p166
(lp167
g9
asVwant
p168
(lp169
g19
asVvi
p170
(lp171
g5
ag5
asVis
p172
(lp173
g9
asVshare
p174
(lp175
g5
ag5
ag6
asVit
p176
(lp177
g19
ag9
asVvim_buffer_redirect
p178
(lp179
g12
asVfile
p180
(lp181
g19
asVin
p182
(lp183
g19
ag9
asVready
p184
(lp185
g9
asVapparently
p186
(lp187
g9
asVif
p188
(lp189
g19
asVagain
p190
(lp191
g19
asVend
p192
(lp193
g12
asVthings
p194
(lp195
g9
asVself
p196
(lp197
g9
asVwhen
p198
(lp199
g9
asVnote
p200
(lp201
g9
ag12
asVyou
p202
(lp203
g19
ag9
asVtorte
p204
(lp205
g5
ag5
ag6
asVmap
p206
(lp207
g12
asVnormal
p208
(lp209
g9
asVupdate
p210
(lp211
g9
asVbullets
p212
(lp213
g9
asVon
p214
(lp215
g9
asVdesert
p216
(lp217
g5
ag5
ag6
asVnumbered
p218
(lp219
g9
asVdon
p220
(lp221
g19
asVbullet
p222
(lp223
g9
asVdocumentation
p224
(lp225
g9
asVthese
p226
(lp227
g9
asVwrite
p228
(lp229
g9
asVcomes
p230
(lp231
g9
asVenter
p232
(lp233
g9
asVdirectory
p234
(lp235
g19
asVposition
p236
(lp237
g9
asVthe
p238
(lp239
g9
asVpeachpuff
p240
(lp241
g5
ag5
ag6
assS'files'
p242
(dp243
g12
F1345354582.0
sg6
F1345356989.0
ssS'version'
p244
I1
s.