(dp0
S'keywords'
p1
(dp2
Vron
p3
(lp4
S'/Users/dkhroad/Notes/vi color_schemes.txt'
p5
ag5
asVsyntax
p6
(lp7
S'/Users/dkhroad/dotfiles/dotvim/bundle/notes/misc/notes/user/First Note'
p8
asVgf
p9
(lp10
g8
asVcolors
p11
(lp12
g5
ag5
asVstored
p13
(lp14
S'/Users/dkhroad/dotfiles/dotvim/bundle/notes/misc/notes/user/README'
p15
asVgo
p16
(lp17
g8
asVcolor_schemes
p18
(lp19
g5
ag5
asVbased
p20
(lp21
g8
asVjust
p22
(lp23
g8
asVtitle
p24
(lp25
g8
asVfolded
p26
(lp27
g8
asVto
p28
(lp29
g15
ag8
asVls
p30
(lp31
g5
ag5
asVunder
p32
(lp33
g8
asVsave
p34
(lp35
g8
asVget
p36
(lp37
g8
asVslate
p38
(lp39
g5
ag5
asVpress
p40
(lp41
g8
asVname
p42
(lp43
g8
asVnotes
p44
(lp45
g15
ag8
asVzellner
p46
(lp47
g5
ag5
asVmorning
p48
(lp49
g5
ag5
asVdefault
p50
(lp51
g15
ag5
ag5
asVmode
p52
(lp53
g8
asVheading
p54
(lp55
g8
asVwww
p56
(lp57
g8
asVgoogle
p58
(lp59
g8
asVjump
p60
(lp61
g8
asVsee
p62
(lp63
g15
ag8
asVpicked
p64
(lp65
g8
asVblue
p66
(lp67
g5
ag5
asVwill
p68
(lp69
g15
ag8
asVfor
p70
(lp71
g8
asVitem
p72
(lp73
g8
asVdarkblue
p74
(lp75
g5
ag5
asVnormal
p76
(lp77
g8
asVdelek
p78
(lp79
g5
ag5
asVfilename
p80
(lp81
g8
asVre
p82
(lp83
g8
asVdoes
p84
(lp85
g8
asVabove
p86
(lp87
g8
asVreadme
p88
(lp89
g15
asVbe
p90
(lp91
g15
ag8
asVwe
p92
(lp93
g8
asVuse
p94
(lp95
g8
asVfree
p96
(lp97
g15
asVvim72
p98
(lp99
g5
ag5
asVby
p100
(lp101
g15
asVbash
p102
(lp103
g5
ag5
asVplug
p104
(lp105
g8
asVon
p106
(lp107
g8
asVabout
p108
(lp109
g8
asVtaking
p110
(lp111
g8
asVcom
p112
(lp113
g8
asVor
p114
(lp115
g8
asVautomatically
p116
(lp117
g8
asVfirst
p118
(lp119
g8
asVfeel
p120
(lp121
g15
asVvim
p122
(lp123
g8
ag5
ag5
asVpablo
p124
(lp125
g5
ag5
asVyour
p126
(lp127
g15
ag8
asVguess
p128
(lp129
g8
asVthree
p130
(lp131
g8
asVusr
p132
(lp133
g5
ag5
asVshine
p134
(lp135
g5
ag5
asVthat
p136
(lp137
g8
asVstarted
p138
(lp139
g8
asVmurphy
p140
(lp141
g5
ag5
asVcommands
p142
(lp143
g8
asVwith
p144
(lp145
g8
asVthis
p146
(lp147
g15
ag8
asVwork
p148
(lp149
g8
asVhosting
p150
(lp151
g8
asVcursor
p152
(lp153
g8
asVcan
p154
(lp155
g8
asVdelete
p156
(lp157
g15
asVand
p158
(lp159
g8
asVwant
p160
(lp161
g15
asVvi
p162
(lp163
g5
ag5
asVis
p164
(lp165
g8
asVshare
p166
(lp167
g5
ag5
asVit
p168
(lp169
g15
ag8
asVhighlighted
p170
(lp171
g8
asVfile
p172
(lp173
g15
asVin
p174
(lp175
g15
ag8
asVready
p176
(lp177
g8
asVapparently
p178
(lp179
g8
asVif
p180
(lp181
g15
asVthese
p182
(lp183
g8
asVthings
p184
(lp185
g8
asVself
p186
(lp187
g8
asVwhen
p188
(lp189
g8
asVnote
p190
(lp191
g8
asVyou
p192
(lp193
g15
ag8
asVtorte
p194
(lp195
g5
ag5
asVagain
p196
(lp197
g15
asVupdate
p198
(lp199
g8
asVbullets
p200
(lp201
g8
asVdesert
p202
(lp203
g5
ag5
asVnumbered
p204
(lp205
g8
asVdon
p206
(lp207
g15
asVbullet
p208
(lp209
g8
asVdocumentation
p210
(lp211
g8
asVwrite
p212
(lp213
g8
asVcomes
p214
(lp215
g8
asVenter
p216
(lp217
g8
asVdirectory
p218
(lp219
g15
asVposition
p220
(lp221
g8
asVthe
p222
(lp223
g8
asVpeachpuff
p224
(lp225
g5
ag5
assS'files'
p226
(dp227
g5
F1345106957.0
ssS'version'
p228
I1
s.